target datalayout = "e-m:e-p270:32:32-p271:32:32-p272:64:64-i64:64-i128:128-f80:128-n8:16:32:64-S128"
target triple = "x86_64-pc-linux-gnu"

%struct.Sbd_Srv_t_ = type { i32, i32, i32, i32, ptr, ptr, ptr, ptr, ptr, [501 x %struct.Sbd_Cut_t_], [501 x ptr], i64, ptr, ptr, ptr, ptr }
%struct.Sbd_Cut_t_ = type { i64, i32, i32, i32, i32, [10 x i32] }
%struct.Vec_Int_t_ = type { i32, i32, ptr }
%struct.timespec = type { i64, i64 }

; Function Attrs: inlinehint nounwind uwtable
define internal ptr @Vec_IntAlloc(i32 noundef %0) #3 {
  %2 = alloca i32, align 4
  %3 = alloca ptr, align 8
  store i32 %0, ptr %2, align 4, !tbaa !10
  call void @llvm.lifetime.start.p0(i64 8, ptr %3) #9
  %4 = call noalias ptr @malloc(i64 noundef 16) #11
  store ptr %4, ptr %3, align 8, !tbaa !8
  %5 = load i32, ptr %2, align 4, !tbaa !10
  %6 = icmp sgt i32 %5, 0
  br i1 %6, label %7, label %11

7:                                                ; preds = %1
  %8 = load i32, ptr %2, align 4, !tbaa !10
  %9 = icmp slt i32 %8, 16
  br i1 %9, label %10, label %11

10:                                               ; preds = %7
  store i32 16, ptr %2, align 4, !tbaa !10
  br label %11

11:                                               ; preds = %10, %7, %1
  %12 = load ptr, ptr %3, align 8, !tbaa !8
  %13 = getelementptr inbounds nuw %struct.Vec_Int_t_, ptr %12, i32 0, i32 1
  store i32 0, ptr %13, align 4, !tbaa !30
  %14 = load i32, ptr %2, align 4, !tbaa !10
  %15 = load ptr, ptr %3, align 8, !tbaa !8
  %16 = getelementptr inbounds nuw %struct.Vec_Int_t_, ptr %15, i32 0, i32 0
  store i32 %14, ptr %16, align 8, !tbaa !33
  %17 = load ptr, ptr %3, align 8, !tbaa !8
  %18 = getelementptr inbounds nuw %struct.Vec_Int_t_, ptr %17, i32 0, i32 0
  %19 = load i32, ptr %18, align 8, !tbaa !33
  %20 = icmp ne i32 %19, 0
  br i1 %20, label %21, label %28

21:                                               ; preds = %11
  %22 = load ptr, ptr %3, align 8, !tbaa !8
  %23 = getelementptr inbounds nuw %struct.Vec_Int_t_, ptr %22, i32 0, i32 0
  %24 = load i32, ptr %23, align 8, !tbaa !33
  %25 = sext i32 %24 to i64
  %26 = mul i64 4, %25
  %27 = call noalias ptr @malloc(i64 noundef %26) #11
  br label %29

28:                                               ; preds = %11
  br label %29

29:                                               ; preds = %28, %21
  %30 = phi ptr [ %27, %21 ], [ null, %28 ]
  %31 = load ptr, ptr %3, align 8, !tbaa !8
  %32 = getelementptr inbounds nuw %struct.Vec_Int_t_, ptr %31, i32 0, i32 2
  store ptr %30, ptr %32, align 8, !tbaa !34
  %33 = load ptr, ptr %3, align 8, !tbaa !8
  call void @llvm.lifetime.end.p0(i64 8, ptr %3) #9
  ret ptr %33
}

; Function Attrs: inlinehint nounwind uwtable
define internal i64 @Abc_Clock() #3 {
  %1 = alloca i64, align 8
  %2 = alloca %struct.timespec, align 8
  %3 = alloca i32, align 4
  %4 = alloca i64, align 8
  call void @llvm.lifetime.start.p0(i64 16, ptr %2) #9
  %5 = call i32 @clock_gettime(i32 noundef 1, ptr noundef %2) #9
  %6 = icmp slt i32 %5, 0
  br i1 %6, label %7, label %8

7:                                                ; preds = %0
  store i64 -1, ptr %1, align 8
  store i32 1, ptr %3, align 4
  br label %19

8:                                                ; preds = %0
  call void @llvm.lifetime.start.p0(i64 8, ptr %4) #9
  %9 = getelementptr inbounds nuw %struct.timespec, ptr %2, i32 0, i32 0
  %10 = load i64, ptr %9, align 8, !tbaa !66
  %11 = mul nsw i64 %10, 1000000
  store i64 %11, ptr %4, align 8, !tbaa !68
  %12 = getelementptr inbounds nuw %struct.timespec, ptr %2, i32 0, i32 1
  %13 = load i64, ptr %12, align 8, !tbaa !69
  %14 = mul nsw i64 %13, 1000000
  %15 = sdiv i64 %14, 1000000000
  %16 = load i64, ptr %4, align 8, !tbaa !68
  %17 = add nsw i64 %16, %15
  store i64 %17, ptr %4, align 8, !tbaa !68
  %18 = load i64, ptr %4, align 8, !tbaa !68
  store i64 %18, ptr %1, align 8
  store i32 1, ptr %3, align 4
  call void @llvm.lifetime.end.p0(i64 8, ptr %4) #9
  br label %19

19:                                               ; preds = %8, %7
  call void @llvm.lifetime.end.p0(i64 16, ptr %2) #9
  %20 = load i64, ptr %1, align 8
  ret i64 %20
}

; Function Attrs: nounwind uwtable
define ptr @Sbd_ManCutServerStart(ptr noundef %0, ptr noundef %1, ptr noundef %2, ptr noundef %3, ptr noundef %4, i32 noundef %5, i32 noundef %6, i32 noundef %7, i32 noundef %8) #0 {
  %10 = alloca ptr, align 8
  %11 = alloca ptr, align 8
  %12 = alloca ptr, align 8
  %13 = alloca ptr, align 8
  %14 = alloca ptr, align 8
  %15 = alloca i32, align 4
  %16 = alloca i32, align 4
  %17 = alloca i32, align 4
  %18 = alloca i32, align 4
  %19 = alloca ptr, align 8
  store ptr %0, ptr %10, align 8, !tbaa !3
  store ptr %1, ptr %11, align 8, !tbaa !8
  store ptr %2, ptr %12, align 8, !tbaa !8
  store ptr %3, ptr %13, align 8, !tbaa !8
  store ptr %4, ptr %14, align 8, !tbaa !8
  store i32 %5, ptr %15, align 4, !tbaa !10
  store i32 %6, ptr %16, align 4, !tbaa !10
  store i32 %7, ptr %17, align 4, !tbaa !10
  store i32 %8, ptr %18, align 4, !tbaa !10
  call void @llvm.lifetime.start.p0(i64 8, ptr %19) #9
  %20 = call noalias ptr @calloc(i64 noundef 1, i64 noundef 36168) #10
  store ptr %20, ptr %19, align 8, !tbaa !12
  %21 = call i64 @Abc_Clock()
  %22 = load ptr, ptr %19, align 8, !tbaa !12
  %23 = getelementptr inbounds nuw %struct.Sbd_Srv_t_, ptr %22, i32 0, i32 11
  store i64 %21, ptr %23, align 8, !tbaa !14
  %24 = load i32, ptr %15, align 4, !tbaa !10
  %25 = load ptr, ptr %19, align 8, !tbaa !12
  %26 = getelementptr inbounds nuw %struct.Sbd_Srv_t_, ptr %25, i32 0, i32 0
  store i32 %24, ptr %26, align 8, !tbaa !17
  %27 = load i32, ptr %16, align 4, !tbaa !10
  %28 = load ptr, ptr %19, align 8, !tbaa !12
  %29 = getelementptr inbounds nuw %struct.Sbd_Srv_t_, ptr %28, i32 0, i32 1
  store i32 %27, ptr %29, align 4, !tbaa !18
  %30 = load i32, ptr %17, align 4, !tbaa !10
  %31 = load ptr, ptr %19, align 8, !tbaa !12
  %32 = getelementptr inbounds nuw %struct.Sbd_Srv_t_, ptr %31, i32 0, i32 2
  store i32 %30, ptr %32, align 8, !tbaa !19
  %33 = load i32, ptr %18, align 4, !tbaa !10
  %34 = load ptr, ptr %19, align 8, !tbaa !12
  %35 = getelementptr inbounds nuw %struct.Sbd_Srv_t_, ptr %34, i32 0, i32 3
  store i32 %33, ptr %35, align 4, !tbaa !20
  %36 = load ptr, ptr %10, align 8, !tbaa !3
  %37 = load ptr, ptr %19, align 8, !tbaa !12
  %38 = getelementptr inbounds nuw %struct.Sbd_Srv_t_, ptr %37, i32 0, i32 4
  store ptr %36, ptr %38, align 8, !tbaa !21
  %39 = load ptr, ptr %11, align 8, !tbaa !8
  %40 = load ptr, ptr %19, align 8, !tbaa !12
  %41 = getelementptr inbounds nuw %struct.Sbd_Srv_t_, ptr %40, i32 0, i32 5
  store ptr %39, ptr %41, align 8, !tbaa !22
  %42 = load ptr, ptr %12, align 8, !tbaa !8
  %43 = load ptr, ptr %19, align 8, !tbaa !12
  %44 = getelementptr inbounds nuw %struct.Sbd_Srv_t_, ptr %43, i32 0, i32 6
  store ptr %42, ptr %44, align 8, !tbaa !23
  %45 = load ptr, ptr %13, align 8, !tbaa !8
  %46 = load ptr, ptr %19, align 8, !tbaa !12
  %47 = getelementptr inbounds nuw %struct.Sbd_Srv_t_, ptr %46, i32 0, i32 7
  store ptr %45, ptr %47, align 8, !tbaa !24
  %48 = load ptr, ptr %14, align 8, !tbaa !8
  %49 = load ptr, ptr %19, align 8, !tbaa !12
  %50 = getelementptr inbounds nuw %struct.Sbd_Srv_t_, ptr %49, i32 0, i32 8
  store ptr %48, ptr %50, align 8, !tbaa !25
  %51 = call ptr @Vec_IntAlloc(i32 noundef 100)
  %52 = load ptr, ptr %19, align 8, !tbaa !12
  %53 = getelementptr inbounds nuw %struct.Sbd_Srv_t_, ptr %52, i32 0, i32 12
  store ptr %51, ptr %53, align 8, !tbaa !26
  %54 = call ptr @Vec_IntAlloc(i32 noundef 100)
  %55 = load ptr, ptr %19, align 8, !tbaa !12
  %56 = getelementptr inbounds nuw %struct.Sbd_Srv_t_, ptr %55, i32 0, i32 13
  store ptr %54, ptr %56, align 8, !tbaa !27
  %57 = call ptr @Vec_IntAlloc(i32 noundef 100)
  %58 = load ptr, ptr %19, align 8, !tbaa !12
  %59 = getelementptr inbounds nuw %struct.Sbd_Srv_t_, ptr %58, i32 0, i32 14
  store ptr %57, ptr %59, align 8, !tbaa !28
  %60 = call ptr @Vec_IntAlloc(i32 noundef 100)
  %61 = load ptr, ptr %19, align 8, !tbaa !12
  %62 = getelementptr inbounds nuw %struct.Sbd_Srv_t_, ptr %61, i32 0, i32 15
  store ptr %60, ptr %62, align 8, !tbaa !29
  %63 = load ptr, ptr %19, align 8, !tbaa !12
  call void @llvm.lifetime.end.p0(i64 8, ptr %19) #9
  ret ptr %63
}