; Function Attrs: nounwind uwtable
define noalias noundef ptr @Sbd_ManCutServerStart(ptr noundef %0, ptr noundef %1, ptr noundef %2, ptr noundef %3, ptr noundef %4, i32 noundef %5, i32 noundef %6, i32 noundef %7, i32 noundef %8) local_unnamed_addr #0 {
  %10 = alloca %struct.timespec, align 8
  %11 = tail call noalias dereferenceable_or_null(36168) ptr @calloc(i64 noundef 1, i64 noundef 36168) #16
  call void @llvm.lifetime.start.p0(i64 16, ptr nonnull %10) #17
  %12 = call i32 @clock_gettime(i32 noundef 1, ptr noundef nonnull %10) #17
  %13 = icmp slt i32 %12, 0
  br i1 %13, label %Abc_Clock.exit, label %14

14:                                               ; preds = %9
  %15 = load i64, ptr %10, align 8, !tbaa !3
  %16 = mul nsw i64 %15, 1000000
  %17 = getelementptr inbounds nuw i8, ptr %10, i64 8
  %18 = load i64, ptr %17, align 8, !tbaa !8
  %19 = sdiv i64 %18, 1000
  %20 = add nsw i64 %19, %16
  br label %Abc_Clock.exit

Abc_Clock.exit:                                   ; preds = %9, %14
  %.0.i = phi i64 [ %20, %14 ], [ -1, %9 ]
  call void @llvm.lifetime.end.p0(i64 16, ptr nonnull %10) #17
  %21 = getelementptr inbounds nuw i8, ptr %11, i64 36128
  store i64 %.0.i, ptr %21, align 8, !tbaa !9
  store i32 %5, ptr %11, align 8, !tbaa !15
  %22 = getelementptr inbounds nuw i8, ptr %11, i64 4
  store i32 %6, ptr %22, align 4, !tbaa !16
  %23 = getelementptr inbounds nuw i8, ptr %11, i64 8
  store i32 %7, ptr %23, align 8, !tbaa !17
  %24 = getelementptr inbounds nuw i8, ptr %11, i64 12
  store i32 %8, ptr %24, align 4, !tbaa !18
  %25 = getelementptr inbounds nuw i8, ptr %11, i64 16
  store ptr %0, ptr %25, align 8, !tbaa !19
  %26 = getelementptr inbounds nuw i8, ptr %11, i64 24
  store ptr %1, ptr %26, align 8, !tbaa !20
  %27 = getelementptr inbounds nuw i8, ptr %11, i64 32
  store ptr %2, ptr %27, align 8, !tbaa !21
  %28 = getelementptr inbounds nuw i8, ptr %11, i64 40
  store ptr %3, ptr %28, align 8, !tbaa !22
  %29 = getelementptr inbounds nuw i8, ptr %11, i64 48
  store ptr %4, ptr %29, align 8, !tbaa !23
  %30 = call noalias dereferenceable_or_null(16) ptr @malloc(i64 noundef 16) #18
  %31 = getelementptr inbounds nuw i8, ptr %30, i64 4
  store i32 0, ptr %31, align 4, !tbaa !24
  store i32 100, ptr %30, align 8, !tbaa !27
  %32 = call noalias dereferenceable_or_null(400) ptr @malloc(i64 noundef 400) #18
  %33 = getelementptr inbounds nuw i8, ptr %30, i64 8
  store ptr %32, ptr %33, align 8, !tbaa !28
  %34 = getelementptr inbounds nuw i8, ptr %11, i64 36136
  store ptr %30, ptr %34, align 8, !tbaa !29
  %35 = call noalias dereferenceable_or_null(16) ptr @malloc(i64 noundef 16) #18
  %36 = getelementptr inbounds nuw i8, ptr %35, i64 4
  store i32 0, ptr %36, align 4, !tbaa !24
  store i32 100, ptr %35, align 8, !tbaa !27
  %37 = call noalias dereferenceable_or_null(400) ptr @malloc(i64 noundef 400) #18
  %38 = getelementptr inbounds nuw i8, ptr %35, i64 8
  store ptr %37, ptr %38, align 8, !tbaa !28
  %39 = getelementptr inbounds nuw i8, ptr %11, i64 36144
  store ptr %35, ptr %39, align 8, !tbaa !30
  %40 = call noalias dereferenceable_or_null(16) ptr @malloc(i64 noundef 16) #18
  %41 = getelementptr inbounds nuw i8, ptr %40, i64 4
  store i32 0, ptr %41, align 4, !tbaa !24
  store i32 100, ptr %40, align 8, !tbaa !27
  %42 = call noalias dereferenceable_or_null(400) ptr @malloc(i64 noundef 400) #18
  %43 = getelementptr inbounds nuw i8, ptr %40, i64 8
  store ptr %42, ptr %43, align 8, !tbaa !28
  %44 = getelementptr inbounds nuw i8, ptr %11, i64 36152
  store ptr %40, ptr %44, align 8, !tbaa !31
  %45 = call noalias dereferenceable_or_null(16) ptr @malloc(i64 noundef 16) #18
  %46 = getelementptr inbounds nuw i8, ptr %45, i64 4
  store i32 0, ptr %46, align 4, !tbaa !24
  store i32 100, ptr %45, align 8, !tbaa !27
  %47 = call noalias dereferenceable_or_null(400) ptr @malloc(i64 noundef 400) #18
  %48 = getelementptr inbounds nuw i8, ptr %45, i64 8
  store ptr %47, ptr %48, align 8, !tbaa !28
  %49 = getelementptr inbounds nuw i8, ptr %11, i64 36160
  store ptr %45, ptr %49, align 8, !tbaa !32
  ret ptr %11
}